target datalayout = "e-m:e-p270:32:32-p271:32:32-p272:64:64-i64:64-i128:128-f80:128-n8:16:32:64-S128"
target triple = "x86_64-pc-linux-gnu"

%struct.UFILE = type { ptr, ptr, ptr, %struct.u_localized_string, [1024 x i16], i8, i32 }
%struct.u_localized_string = type { ptr, ptr, ptr, %struct.ULocaleBundle }
%struct.ULocaleBundle = type { ptr, [5 x ptr], i8 }

; Function Attrs: mustprogress uwtable
define ptr @u_fstropen_77(ptr noundef %0, i32 noundef %1, ptr noundef %2) #0 {
  %4 = alloca ptr, align 8
  %5 = alloca ptr, align 8
  %6 = alloca i32, align 4
  %7 = alloca ptr, align 8
  %8 = alloca ptr, align 8
  %9 = alloca i32, align 4
  store ptr %0, ptr %5, align 8, !tbaa !28
  store i32 %1, ptr %6, align 4, !tbaa !29
  store ptr %2, ptr %7, align 8, !tbaa !8
  call void @llvm.lifetime.start.p0(i64 8, ptr %8) #9
  %10 = load i32, ptr %6, align 4, !tbaa !29
  %11 = icmp slt i32 %10, 0
  br i1 %11, label %12, label %13

12:                                               ; preds = %3
  store ptr null, ptr %4, align 8
  store i32 1, ptr %9, align 4
  br label %45

13:                                               ; preds = %3
  %14 = call noalias ptr @uprv_malloc_77(i64 noundef 2160) #10
  store ptr %14, ptr %8, align 8, !tbaa !13
  %15 = load ptr, ptr %8, align 8, !tbaa !13
  %16 = icmp eq ptr %15, null
  br i1 %16, label %17, label %18

17:                                               ; preds = %13
  store ptr null, ptr %4, align 8
  store i32 1, ptr %9, align 4
  br label %45

18:                                               ; preds = %13
  %19 = load ptr, ptr %8, align 8, !tbaa !13
  call void @llvm.memset.p0.i64(ptr align 8 %19, i8 0, i64 2160, i1 false)
  %20 = load ptr, ptr %5, align 8, !tbaa !28
  %21 = load ptr, ptr %8, align 8, !tbaa !13
  %22 = getelementptr inbounds nuw %struct.UFILE, ptr %21, i32 0, i32 3
  %23 = getelementptr inbounds nuw %struct.u_localized_string, ptr %22, i32 0, i32 2
  store ptr %20, ptr %23, align 8, !tbaa !23
  %24 = load ptr, ptr %5, align 8, !tbaa !28
  %25 = load ptr, ptr %8, align 8, !tbaa !13
  %26 = getelementptr inbounds nuw %struct.UFILE, ptr %25, i32 0, i32 3
  %27 = getelementptr inbounds nuw %struct.u_localized_string, ptr %26, i32 0, i32 0
  store ptr %24, ptr %27, align 8, !tbaa !24
  %28 = load ptr, ptr %5, align 8, !tbaa !28
  %29 = load i32, ptr %6, align 4, !tbaa !29
  %30 = sext i32 %29 to i64
  %31 = getelementptr inbounds i16, ptr %28, i64 %30
  %32 = load ptr, ptr %8, align 8, !tbaa !13
  %33 = getelementptr inbounds nuw %struct.UFILE, ptr %32, i32 0, i32 3
  %34 = getelementptr inbounds nuw %struct.u_localized_string, ptr %33, i32 0, i32 1
  store ptr %31, ptr %34, align 8, !tbaa !25
  %35 = load ptr, ptr %8, align 8, !tbaa !13
  %36 = getelementptr inbounds nuw %struct.UFILE, ptr %35, i32 0, i32 3
  %37 = getelementptr inbounds nuw %struct.u_localized_string, ptr %36, i32 0, i32 3
  %38 = load ptr, ptr %7, align 8, !tbaa !8
  %39 = call ptr @u_locbund_init_77(ptr noundef %37, ptr noundef %38)
  %40 = icmp eq ptr %39, null
  br i1 %40, label %41, label %43

41:                                               ; preds = %18
  %42 = load ptr, ptr %8, align 8, !tbaa !13
  call void @uprv_free_77(ptr noundef %42)
  store ptr null, ptr %4, align 8
  store i32 1, ptr %9, align 4
  br label %45

43:                                               ; preds = %18
  %44 = load ptr, ptr %8, align 8, !tbaa !13
  store ptr %44, ptr %4, align 8
  store i32 1, ptr %9, align 4
  br label %45

45:                                               ; preds = %43, %41, %17, %12
  call void @llvm.lifetime.end.p0(i64 8, ptr %8) #9
  %46 = load ptr, ptr %4, align 8
  ret ptr %46
}