; Function Attrs: mustprogress uwtable
define noundef ptr @u_fstropen_77(ptr noundef %0, i32 noundef %1, ptr noundef %2) local_unnamed_addr #0 {
  %4 = icmp slt i32 %1, 0
  br i1 %4, label %18, label %5

5:                                                ; preds = %3
  %6 = tail call noalias dereferenceable_or_null(2160) ptr @uprv_malloc_77(i64 noundef 2160) #10
  %7 = icmp eq ptr %6, null
  br i1 %7, label %18, label %8

8:                                                ; preds = %5
  tail call void @llvm.memset.p0.i64(ptr noundef nonnull align 8 dereferenceable(2160) %6, i8 0, i64 2160, i1 false)
  %9 = getelementptr inbounds nuw i8, ptr %6, i64 24
  %10 = getelementptr inbounds nuw i8, ptr %6, i64 40
  store ptr %0, ptr %10, align 8, !tbaa !18
  store ptr %0, ptr %9, align 8, !tbaa !19
  %11 = zext nneg i32 %1 to i64
  %12 = getelementptr inbounds nuw i16, ptr %0, i64 %11
  %13 = getelementptr inbounds nuw i8, ptr %6, i64 32
  store ptr %12, ptr %13, align 8, !tbaa !20
  %14 = getelementptr inbounds nuw i8, ptr %6, i64 48
  %15 = tail call ptr @u_locbund_init_77(ptr noundef nonnull %14, ptr noundef %2)
  %16 = icmp eq ptr %15, null
  br i1 %16, label %17, label %18

17:                                               ; preds = %8
  tail call void @uprv_free_77(ptr noundef nonnull %6)
  br label %18

18:                                               ; preds = %8, %5, %3, %17
  %.0 = phi ptr [ null, %17 ], [ null, %3 ], [ null, %5 ], [ %6, %8 ]
  ret ptr %.0
}